; Function Attrs: mustprogress nofree norecurse nounwind memory(argmem: readwrite) uwtable
define internal noundef zeroext i1 @_ZL21cq_begin_op_for_pluckP21grpc_completion_queuePv(ptr noundef captures(none) %0, ptr readnone captures(none) %1) #24 {
  %3 = getelementptr inbounds nuw i8, ptr %0, i64 312
  %4 = load atomic i64, ptr %3 acquire, align 8
  %.not.i = icmp eq i64 %4, 0
  br i1 %.not.i, label %_ZN9grpc_core18IncrementIfNonzeroIlEEbPSt6atomicIT_E.exit, label %.lr.ph.i

.lr.ph.i:                                         ; preds = %2, %.lr.ph.i
  %.06.i = phi i64 [ %8, %.lr.ph.i ], [ %4, %2 ]
  %5 = add nsw i64 %.06.i, 1
  %6 = cmpxchg weak ptr %3, i64 %.06.i, i64 %5 acq_rel acquire, align 8
  %7 = extractvalue { i64, i1 } %6, 1
  %8 = extractvalue { i64, i1 } %6, 0
  %.not9.i = icmp eq i64 %8, 0
  %or.cond = select i1 %7, i1 true, i1 %.not9.i
  br i1 %or.cond, label %_ZN9grpc_core18IncrementIfNonzeroIlEEbPSt6atomicIT_E.exit, label %.lr.ph.i

_ZN9grpc_core18IncrementIfNonzeroIlEEbPSt6atomicIT_E.exit: ; preds = %.lr.ph.i, %2
  %.lcssa.i = phi i1 [ false, %2 ], [ %7, %.lr.ph.i ]
  ret i1 %.lcssa.i
}